(dp1
S'timeStop'
p2
I44640
sS'n_sym_source'
p3
I30001
sS'weight_scale'
p4
F0.01
sS'unk_sym_target'
p5
I1
sS'hid_mult'
p6
F1
sS'c_dim'
p7
I3000
sS'maxout_part'
p8
F2
sS'activ'
p9
S'lambda x: TT.tanh(x)'
p10
sS'deep_attention_n_hids'
p11
(lp12
I1500
aI1500
asS'dec_rec_reseter'
p13
S'lambda x: TT.nnet.sigmoid(x)'
p14
sS'source'
p15
(lp16
S'/home/ubuntu/data/source-en-en-binarized_text.h5'
p17
asS'lr'
p18
F1
sS'null_sym_source'
p19
I30000
sS'last_backward'
p20
I00
sS'testppl'
p21
F1e+20
sS'rec_reseter'
p22
g14
sS'clr'
p23
F1
sS'dec_rec_gater'
p24
g14
sS'validFreq'
p25
I500
sS'dec_rec_gating'
p26
I01
sS'minerr'
p27
I-1
sS'validation_set_out'
p28
NsS'dec_rec_layer'
p29
S'RecurrentLayerWithSearch'
p30
sS'enc_rec_gater'
p31
g14
sS'rec_weight_init_fn'
p32
S'sample_weights_orth'
p33
sS'dim'
p34
I1500
sS'level'
p35
S'DEBUG'
p36
sS'prefix'
p37
S'deepAttention_'
p38
sS'decoding_inputs'
p39
I01
sS'rank_n_approx'
p40
I420
sS'saveFreq'
p41
I10
sS'n_sym_target'
p42
I30001
sS'word_indx_trgt'
p43
S'/home/ubuntu/data/target-en-fr-vocab.pkl'
p44
sS'validation_set_grndtruth'
p45
NsS'dec_rec_reseting'
p46
I01
sS'validcost'
p47
F1e+20
sS'weight_noise_rec'
p48
I00
sS'overwrite'
p49
I1
sS'trainFreq'
p50
I1
sS'reload'
p51
I01
sS'dropout_rec'
p52
F1
sS'deep_out'
p53
I01
sS'hookFreq'
p54
I13
sS'indx_word'
p55
S'/home/ubuntu/data/source-en-en-invert-dict.pkl'
p56
sS'gotNaN'
p57
I0
sS'step'
p58
I1519
sS'bs'
p59
I80
sS'validation_set'
p60
NsS'decoder_stack'
p61
I1
sS'search'
p62
I01
sS'log2_p_word'
p63
F1e+20
sS'beam_size'
p64
I20
sS'algo'
p65
S'SGD_adadelta'
p66
sS'minlr'
p67
I0
sS'bias_code'
p68
I01
sS'bleu_script'
p69
NsS'cutoff'
p70
F1
sS'shuffle'
p71
I00
sS'word_indx'
p72
S'/home/ubuntu/data/source-en-en-vocab.pkl'
p73
sS'indx_word_target'
p74
S'/home/ubuntu/data/target-en-fr-invert-dict.pkl'
p75
sS'seqlen'
p76
I50
sS'patience'
p77
I1
sS'sort_k_batches'
p78
I20
sS'rec_reseting'
p79
I01
sS'deep_attention_acts'
p80
(lp81
S' lambda x: TT.tanh(x) '
p82
ag82
asS'testcost'
p83
F1e+20
sS'rec_weight_scale'
p84
F1
sS'use_infinite_loop'
p85
I01
sS'null_sym_target'
p86
I30000
sS'deep_attention'
p87
I01
sS'n_samples'
p88
I3
sS'forward'
p89
I01
sS'log2_p_expl'
p90
F1e+20
sS'trim_batches'
p91
I01
sS'dropout'
p92
F0.5
sS'dim_mult'
p93
F1
sS'target_words_segmented'
p94
I00
sS'traincost'
p95
F11648.89453125
sS'oov'
p96
S'UNK'
p97
sS'rec_layer'
p98
S'RecurrentLayer'
p99
sS'reset'
p100
I-1
sS'target'
p101
(lp102
S'/home/ubuntu/data/target-en-fr-binarized_text.h5'
p103
asS'char_based_bleu'
p104
I00
sS'bleu_val_frequency'
p105
I20000
sS'grad_norm'
p106
F1e+20
sS'bias'
p107
F0
sS'enc_rec_reseter'
p108
g14
sS'validppl'
p109
F1e+20
sS'check_first_word'
p110
I01
sS'cutoff_rescale_length'
p111
F0
sS'bigram'
p112
I01
sS'enc_rec_reseting'
p113
I01
sS'encoder_stack'
p114
I1
sS'last_forward'
p115
I00
sS'unary_activ'
p116
S'Maxout(2)'
p117
sS'adarho'
p118
F0.94999999999999996
sS'enc_rec_layer'
p119
g99
sS'seed'
p120
I1234
sS'validation_burn_in'
p121
I10000
sS'unk_sym_source'
p122
I1
sS'weight_noise'
p123
I01
sS'adaeps'
p124
F9.9999999999999995e-07
sS'use_nce'
p125
I00
sS'source_encoding'
p126
S'ascii'
p127
sS'rank_n_activ'
p128
S'lambda x: x'
p129
sS'target_encoding'
p130
g127
sS'enc_rec_gating'
p131
I01
sS'n_examples'
p132
I3
sS'loopIters'
p133
I3000000
sS'profile'
p134
I0
sS'rec_gating'
p135
I01
sS'weight_init_fn'
p136
S'sample_weights_classic'
p137
sS'take_top'
p138
I01
sS'output_validation_set'
p139
I00
sS'on_nan'
p140
S'raise'
p141
sS'eps'
p142
F1e-10
sS'bvalidcost'
p143
F1e+21
sS'weight_noise_amount'
p144
F0.01
sS'backward'
p145
I01
sS'rec_gater'
p146
g14
s.